target datalayout = "e-m:e-p270:32:32-p271:32:32-p272:64:64-i64:64-i128:128-f80:128-n8:16:32:64-S128"
target triple = "x86_64-pc-linux-gnu"

%"class.cv::Scalar_" = type { %"class.cv::Vec" }
%"class.cv::Vec" = type { %"class.cv::Matx" }
%"class.cv::Matx" = type { [4 x double] }
%"class.cv::Point_" = type { i32, i32 }
%"class.cv::_InputOutputArray" = type { %"class.cv::_OutputArray" }
%"class.cv::_OutputArray" = type { %"class.cv::_InputArray" }
%"class.cv::_InputArray" = type { i32, ptr, %"class.cv::Size_" }
%"class.cv::Size_" = type { i32, i32 }

@__const._Z9MyPolygonN2cv3MatE.npt = private unnamed_addr constant [1 x i32] [i32 20], align 4

; Function Attrs: mustprogress nounwind uwtable
define linkonce_odr hidden void @_ZN2cv5Size_IiEC2Ev(ptr noundef nonnull align 4 dereferenceable(8) %0) unnamed_addr #4 comdat align 2 {
  %2 = alloca ptr, align 8
  store ptr %0, ptr %2, align 8
  %3 = load ptr, ptr %2, align 8
  %4 = getelementptr inbounds %"class.cv::Size_", ptr %3, i32 0, i32 0
  store i32 0, ptr %4, align 4
  %5 = getelementptr inbounds %"class.cv::Size_", ptr %3, i32 0, i32 1
  store i32 0, ptr %5, align 4
  ret void
}

; Function Attrs: mustprogress nounwind uwtable
define linkonce_odr hidden void @_ZN2cv4MatxIdLi4ELi1EEC2Ev(ptr noundef nonnull align 8 dereferenceable(32) %0) unnamed_addr #4 comdat align 2 {
  %2 = alloca ptr, align 8
  %3 = alloca i32, align 4
  store ptr %0, ptr %2, align 8
  %4 = load ptr, ptr %2, align 8
  store i32 0, ptr %3, align 4
  br label %5

5:                                                ; preds = %13, %1
  %6 = load i32, ptr %3, align 4
  %7 = icmp slt i32 %6, 4
  br i1 %7, label %8, label %16

8:                                                ; preds = %5
  %9 = getelementptr inbounds %"class.cv::Matx", ptr %4, i32 0, i32 0
  %10 = load i32, ptr %3, align 4
  %11 = sext i32 %10 to i64
  %12 = getelementptr inbounds [4 x double], ptr %9, i64 0, i64 %11
  store double 0.000000e+00, ptr %12, align 8
  br label %13

13:                                               ; preds = %8
  %14 = load i32, ptr %3, align 4
  %15 = add nsw i32 %14, 1
  store i32 %15, ptr %3, align 4
  br label %5, !llvm.loop !5

16:                                               ; preds = %5
  ret void
}

; Function Attrs: mustprogress nounwind uwtable
define linkonce_odr hidden void @_ZN2cv11_InputArrayD2Ev(ptr noundef nonnull align 8 dereferenceable(24) %0) unnamed_addr #4 comdat align 2 {
  %2 = alloca ptr, align 8
  store ptr %0, ptr %2, align 8
  ret void
}

; Function Attrs: mustprogress uwtable
define linkonce_odr hidden void @_ZN2cv11_InputArrayC2Ev(ptr noundef nonnull align 8 dereferenceable(24) %0) unnamed_addr #3 comdat align 2 {
  %2 = alloca ptr, align 8
  store ptr %0, ptr %2, align 8
  %3 = load ptr, ptr %2, align 8
  %4 = getelementptr inbounds %"class.cv::_InputArray", ptr %3, i32 0, i32 2
  call void @_ZN2cv5Size_IiEC2Ev(ptr noundef nonnull align 4 dereferenceable(8) %4)
  call void @_ZN2cv11_InputArray4initEiPKv(ptr noundef nonnull align 8 dereferenceable(24) %3, i32 noundef 0, ptr noundef null)
  ret void
}

; Function Attrs: mustprogress uwtable
define linkonce_odr hidden void @_ZN2cv3VecIdLi4EEC2Ev(ptr noundef nonnull align 8 dereferenceable(32) %0) unnamed_addr #3 comdat align 2 {
  %2 = alloca ptr, align 8
  store ptr %0, ptr %2, align 8
  %3 = load ptr, ptr %2, align 8
  call void @_ZN2cv4MatxIdLi4ELi1EEC2Ev(ptr noundef nonnull align 8 dereferenceable(32) %3)
  ret void
}

; Function Attrs: mustprogress nounwind uwtable
define linkonce_odr hidden void @_ZN2cv12_OutputArrayD2Ev(ptr noundef nonnull align 8 dereferenceable(24) %0) unnamed_addr #4 comdat align 2 {
  %2 = alloca ptr, align 8
  store ptr %0, ptr %2, align 8
  %3 = load ptr, ptr %2, align 8
  call void @_ZN2cv11_InputArrayD2Ev(ptr noundef nonnull align 8 dereferenceable(24) %3) #6
  ret void
}

; Function Attrs: mustprogress nounwind uwtable
define linkonce_odr hidden void @_ZN2cv11_InputArray4initEiPKv(ptr noundef nonnull align 8 dereferenceable(24) %0, i32 noundef %1, ptr noundef %2) #4 comdat align 2 {
  %4 = alloca ptr, align 8
  %5 = alloca i32, align 4
  %6 = alloca ptr, align 8
  store ptr %0, ptr %4, align 8
  store i32 %1, ptr %5, align 4
  store ptr %2, ptr %6, align 8
  %7 = load ptr, ptr %4, align 8
  %8 = load i32, ptr %5, align 4
  %9 = getelementptr inbounds %"class.cv::_InputArray", ptr %7, i32 0, i32 0
  store i32 %8, ptr %9, align 8
  %10 = load ptr, ptr %6, align 8
  %11 = getelementptr inbounds %"class.cv::_InputArray", ptr %7, i32 0, i32 1
  store ptr %10, ptr %11, align 8
  ret void
}

; Function Attrs: mustprogress uwtable
define linkonce_odr hidden void @_ZN2cv12_OutputArrayC2Ev(ptr noundef nonnull align 8 dereferenceable(24) %0) unnamed_addr #3 comdat align 2 personality ptr @__gxx_personality_v0 {
  %2 = alloca ptr, align 8
  %3 = alloca ptr, align 8
  %4 = alloca i32, align 4
  store ptr %0, ptr %2, align 8
  %5 = load ptr, ptr %2, align 8
  call void @_ZN2cv11_InputArrayC2Ev(ptr noundef nonnull align 8 dereferenceable(24) %5)
  invoke void @_ZN2cv11_InputArray4initEiPKv(ptr noundef nonnull align 8 dereferenceable(24) %5, i32 noundef 33554432, ptr noundef null)
          to label %6 unwind label %7

6:                                                ; preds = %1
  ret void

7:                                                ; preds = %1
  %8 = landingpad { ptr, i32 }
          cleanup
  %9 = extractvalue { ptr, i32 } %8, 0
  store ptr %9, ptr %3, align 8
  %10 = extractvalue { ptr, i32 } %8, 1
  store i32 %10, ptr %4, align 4
  call void @_ZN2cv11_InputArrayD2Ev(ptr noundef nonnull align 8 dereferenceable(24) %5) #6
  br label %11

11:                                               ; preds = %7
  %12 = load ptr, ptr %3, align 8
  %13 = load i32, ptr %4, align 4
  %14 = insertvalue { ptr, i32 } poison, ptr %12, 0
  %15 = insertvalue { ptr, i32 } %14, i32 %13, 1
  resume { ptr, i32 } %15
}

; Function Attrs: mustprogress nounwind uwtable
define linkonce_odr hidden void @_ZN2cv17_InputOutputArrayD2Ev(ptr noundef nonnull align 8 dereferenceable(24) %0) unnamed_addr #4 comdat align 2 {
  %2 = alloca ptr, align 8
  store ptr %0, ptr %2, align 8
  %3 = load ptr, ptr %2, align 8
  call void @_ZN2cv12_OutputArrayD2Ev(ptr noundef nonnull align 8 dereferenceable(24) %3) #6
  ret void
}

; Function Attrs: mustprogress uwtable
define linkonce_odr hidden void @_ZN2cv7Scalar_IdEC2Edddd(ptr noundef nonnull align 8 dereferenceable(32) %0, double noundef %1, double noundef %2, double noundef %3, double noundef %4) unnamed_addr #3 comdat align 2 {
  %6 = alloca ptr, align 8
  %7 = alloca double, align 8
  %8 = alloca double, align 8
  %9 = alloca double, align 8
  %10 = alloca double, align 8
  store ptr %0, ptr %6, align 8
  store double %1, ptr %7, align 8
  store double %2, ptr %8, align 8
  store double %3, ptr %9, align 8
  store double %4, ptr %10, align 8
  %11 = load ptr, ptr %6, align 8
  call void @_ZN2cv3VecIdLi4EEC2Ev(ptr noundef nonnull align 8 dereferenceable(32) %11)
  %12 = load double, ptr %7, align 8
  %13 = getelementptr inbounds %"class.cv::Matx", ptr %11, i32 0, i32 0
  %14 = getelementptr inbounds [4 x double], ptr %13, i64 0, i64 0
  store double %12, ptr %14, align 8
  %15 = load double, ptr %8, align 8
  %16 = getelementptr inbounds %"class.cv::Matx", ptr %11, i32 0, i32 0
  %17 = getelementptr inbounds [4 x double], ptr %16, i64 0, i64 1
  store double %15, ptr %17, align 8
  %18 = load double, ptr %9, align 8
  %19 = getelementptr inbounds %"class.cv::Matx", ptr %11, i32 0, i32 0
  %20 = getelementptr inbounds [4 x double], ptr %19, i64 0, i64 2
  store double %18, ptr %20, align 8
  %21 = load double, ptr %10, align 8
  %22 = getelementptr inbounds %"class.cv::Matx", ptr %11, i32 0, i32 0
  %23 = getelementptr inbounds [4 x double], ptr %22, i64 0, i64 3
  store double %21, ptr %23, align 8
  ret void
}

; Function Attrs: mustprogress uwtable
define linkonce_odr hidden void @_ZN2cv17_InputOutputArrayC2ERNS_3MatE(ptr noundef nonnull align 8 dereferenceable(24) %0, ptr noundef nonnull align 8 dereferenceable(96) %1) unnamed_addr #3 comdat align 2 personality ptr @__gxx_personality_v0 {
  %3 = alloca ptr, align 8
  %4 = alloca ptr, align 8
  %5 = alloca ptr, align 8
  %6 = alloca i32, align 4
  store ptr %0, ptr %3, align 8
  store ptr %1, ptr %4, align 8
  %7 = load ptr, ptr %3, align 8
  call void @_ZN2cv12_OutputArrayC2Ev(ptr noundef nonnull align 8 dereferenceable(24) %7)
  %8 = load ptr, ptr %4, align 8
  invoke void @_ZN2cv11_InputArray4initEiPKv(ptr noundef nonnull align 8 dereferenceable(24) %7, i32 noundef 50397184, ptr noundef %8)
          to label %9 unwind label %10

9:                                                ; preds = %2
  ret void

10:                                               ; preds = %2
  %11 = landingpad { ptr, i32 }
          cleanup
  %12 = extractvalue { ptr, i32 } %11, 0
  store ptr %12, ptr %5, align 8
  %13 = extractvalue { ptr, i32 } %11, 1
  store i32 %13, ptr %6, align 4
  call void @_ZN2cv12_OutputArrayD2Ev(ptr noundef nonnull align 8 dereferenceable(24) %7) #6
  br label %14

14:                                               ; preds = %10
  %15 = load ptr, ptr %5, align 8
  %16 = load i32, ptr %6, align 4
  %17 = insertvalue { ptr, i32 } poison, ptr %15, 0
  %18 = insertvalue { ptr, i32 } %17, i32 %16, 1
  resume { ptr, i32 } %18
}

; Function Attrs: mustprogress nounwind uwtable
define linkonce_odr hidden void @_ZN2cv6Point_IiEC2Eii(ptr noundef nonnull align 4 dereferenceable(8) %0, i32 noundef %1, i32 noundef %2) unnamed_addr #4 comdat align 2 {
  %4 = alloca ptr, align 8
  %5 = alloca i32, align 4
  %6 = alloca i32, align 4
  store ptr %0, ptr %4, align 8
  store i32 %1, ptr %5, align 4
  store i32 %2, ptr %6, align 4
  %7 = load ptr, ptr %4, align 8
  %8 = getelementptr inbounds %"class.cv::Point_", ptr %7, i32 0, i32 0
  %9 = load i32, ptr %5, align 4
  store i32 %9, ptr %8, align 4
  %10 = getelementptr inbounds %"class.cv::Point_", ptr %7, i32 0, i32 1
  %11 = load i32, ptr %6, align 4
  store i32 %11, ptr %10, align 4
  ret void
}

; Function Attrs: mustprogress nounwind uwtable
define linkonce_odr hidden void @_ZN2cv6Point_IiEC2Ev(ptr noundef nonnull align 4 dereferenceable(8) %0) unnamed_addr #4 comdat align 2 {
  %2 = alloca ptr, align 8
  store ptr %0, ptr %2, align 8
  %3 = load ptr, ptr %2, align 8
  %4 = getelementptr inbounds %"class.cv::Point_", ptr %3, i32 0, i32 0
  store i32 0, ptr %4, align 4
  %5 = getelementptr inbounds %"class.cv::Point_", ptr %3, i32 0, i32 1
  store i32 0, ptr %5, align 4
  ret void
}

; Function Attrs: mustprogress uwtable
define hidden void @_Z9MyPolygonN2cv3MatE(ptr noundef %0) #3 personality ptr @__gxx_personality_v0 {
  %2 = alloca ptr, align 8
  %3 = alloca i32, align 4
  %4 = alloca [1 x [20 x %"class.cv::Point_"]], align 16
  %5 = alloca %"class.cv::Point_", align 4
  %6 = alloca %"class.cv::Point_", align 4
  %7 = alloca %"class.cv::Point_", align 4
  %8 = alloca %"class.cv::Point_", align 4
  %9 = alloca %"class.cv::Point_", align 4
  %10 = alloca %"class.cv::Point_", align 4
  %11 = alloca %"class.cv::Point_", align 4
  %12 = alloca %"class.cv::Point_", align 4
  %13 = alloca %"class.cv::Point_", align 4
  %14 = alloca %"class.cv::Point_", align 4
  %15 = alloca %"class.cv::Point_", align 4
  %16 = alloca %"class.cv::Point_", align 4
  %17 = alloca %"class.cv::Point_", align 4
  %18 = alloca %"class.cv::Point_", align 4
  %19 = alloca %"class.cv::Point_", align 4
  %20 = alloca %"class.cv::Point_", align 4
  %21 = alloca %"class.cv::Point_", align 4
  %22 = alloca %"class.cv::Point_", align 4
  %23 = alloca %"class.cv::Point_", align 4
  %24 = alloca %"class.cv::Point_", align 4
  %25 = alloca [1 x ptr], align 8
  %26 = alloca [1 x i32], align 4
  %27 = alloca %"class.cv::_InputOutputArray", align 8
  %28 = alloca %"class.cv::Scalar_", align 8
  %29 = alloca ptr, align 8
  %30 = alloca i32, align 4
  %31 = alloca %"class.cv::Point_", align 4
  store ptr %0, ptr %2, align 8
  store i32 8, ptr %3, align 4
  %32 = getelementptr inbounds [1 x [20 x %"class.cv::Point_"]], ptr %4, i32 0, i32 0, i32 0
  %33 = getelementptr inbounds %"class.cv::Point_", ptr %32, i64 20
  br label %34

34:                                               ; preds = %34, %1
  %35 = phi ptr [ %32, %1 ], [ %36, %34 ]
  call void @_ZN2cv6Point_IiEC2Ev(ptr noundef nonnull align 4 dereferenceable(8) %35)
  %36 = getelementptr inbounds %"class.cv::Point_", ptr %35, i64 1
  %37 = icmp eq ptr %36, %33
  br i1 %37, label %38, label %34

38:                                               ; preds = %34
  call void @_ZN2cv6Point_IiEC2Eii(ptr noundef nonnull align 4 dereferenceable(8) %5, i32 noundef 100, i32 noundef 350)
  %39 = getelementptr inbounds [1 x [20 x %"class.cv::Point_"]], ptr %4, i64 0, i64 0
  %40 = getelementptr inbounds [20 x %"class.cv::Point_"], ptr %39, i64 0, i64 0
  call void @llvm.memcpy.p0.p0.i64(ptr align 16 %40, ptr align 4 %5, i64 8, i1 false)
  call void @_ZN2cv6Point_IiEC2Eii(ptr noundef nonnull align 4 dereferenceable(8) %6, i32 noundef 300, i32 noundef 350)
  %41 = getelementptr inbounds [1 x [20 x %"class.cv::Point_"]], ptr %4, i64 0, i64 0
  %42 = getelementptr inbounds [20 x %"class.cv::Point_"], ptr %41, i64 0, i64 1
  call void @llvm.memcpy.p0.p0.i64(ptr align 8 %42, ptr align 4 %6, i64 8, i1 false)
  call void @_ZN2cv6Point_IiEC2Eii(ptr noundef nonnull align 4 dereferenceable(8) %7, i32 noundef 300, i32 noundef 325)
  %43 = getelementptr inbounds [1 x [20 x %"class.cv::Point_"]], ptr %4, i64 0, i64 0
  %44 = getelementptr inbounds [20 x %"class.cv::Point_"], ptr %43, i64 0, i64 2
  call void @llvm.memcpy.p0.p0.i64(ptr align 16 %44, ptr align 4 %7, i64 8, i1 false)
  call void @_ZN2cv6Point_IiEC2Eii(ptr noundef nonnull align 4 dereferenceable(8) %8, i32 noundef 275, i32 noundef 325)
  %45 = getelementptr inbounds [1 x [20 x %"class.cv::Point_"]], ptr %4, i64 0, i64 0
  %46 = getelementptr inbounds [20 x %"class.cv::Point_"], ptr %45, i64 0, i64 3
  call void @llvm.memcpy.p0.p0.i64(ptr align 8 %46, ptr align 4 %8, i64 8, i1 false)
  call void @_ZN2cv6Point_IiEC2Eii(ptr noundef nonnull align 4 dereferenceable(8) %9, i32 noundef 237, i32 noundef 150)
  %47 = getelementptr inbounds [1 x [20 x %"class.cv::Point_"]], ptr %4, i64 0, i64 0
  %48 = getelementptr inbounds [20 x %"class.cv::Point_"], ptr %47, i64 0, i64 4
  call void @llvm.memcpy.p0.p0.i64(ptr align 16 %48, ptr align 4 %9, i64 8, i1 false)
  call void @_ZN2cv6Point_IiEC2Eii(ptr noundef nonnull align 4 dereferenceable(8) %10, i32 noundef 300, i32 noundef 150)
  %49 = getelementptr inbounds [1 x [20 x %"class.cv::Point_"]], ptr %4, i64 0, i64 0
  %50 = getelementptr inbounds [20 x %"class.cv::Point_"], ptr %49, i64 0, i64 5
  call void @llvm.memcpy.p0.p0.i64(ptr align 8 %50, ptr align 4 %10, i64 8, i1 false)
  call void @_ZN2cv6Point_IiEC2Eii(ptr noundef nonnull align 4 dereferenceable(8) %11, i32 noundef 300, i32 noundef 50)
  %51 = getelementptr inbounds [1 x [20 x %"class.cv::Point_"]], ptr %4, i64 0, i64 0
  %52 = getelementptr inbounds [20 x %"class.cv::Point_"], ptr %51, i64 0, i64 6
  call void @llvm.memcpy.p0.p0.i64(ptr align 16 %52, ptr align 4 %11, i64 8, i1 false)
  call void @_ZN2cv6Point_IiEC2Eii(ptr noundef nonnull align 4 dereferenceable(8) %12, i32 noundef 260, i32 noundef 50)
  %53 = getelementptr inbounds [1 x [20 x %"class.cv::Point_"]], ptr %4, i64 0, i64 0
  %54 = getelementptr inbounds [20 x %"class.cv::Point_"], ptr %53, i64 0, i64 7
  call void @llvm.memcpy.p0.p0.i64(ptr align 8 %54, ptr align 4 %12, i64 8, i1 false)
  call void @_ZN2cv6Point_IiEC2Eii(ptr noundef nonnull align 4 dereferenceable(8) %13, i32 noundef 260, i32 noundef 100)
  %55 = getelementptr inbounds [1 x [20 x %"class.cv::Point_"]], ptr %4, i64 0, i64 0
  %56 = getelementptr inbounds [20 x %"class.cv::Point_"], ptr %55, i64 0, i64 8
  call void @llvm.memcpy.p0.p0.i64(ptr align 16 %56, ptr align 4 %13, i64 8, i1 false)
  call void @_ZN2cv6Point_IiEC2Eii(ptr noundef nonnull align 4 dereferenceable(8) %14, i32 noundef 220, i32 noundef 100)
  %57 = getelementptr inbounds [1 x [20 x %"class.cv::Point_"]], ptr %4, i64 0, i64 0
  %58 = getelementptr inbounds [20 x %"class.cv::Point_"], ptr %57, i64 0, i64 9
  call void @llvm.memcpy.p0.p0.i64(ptr align 8 %58, ptr align 4 %14, i64 8, i1 false)
  call void @_ZN2cv6Point_IiEC2Eii(ptr noundef nonnull align 4 dereferenceable(8) %15, i32 noundef 220, i32 noundef 50)
  %59 = getelementptr inbounds [1 x [20 x %"class.cv::Point_"]], ptr %4, i64 0, i64 0
  %60 = getelementptr inbounds [20 x %"class.cv::Point_"], ptr %59, i64 0, i64 10
  call void @llvm.memcpy.p0.p0.i64(ptr align 16 %60, ptr align 4 %15, i64 8, i1 false)
  call void @_ZN2cv6Point_IiEC2Eii(ptr noundef nonnull align 4 dereferenceable(8) %16, i32 noundef 180, i32 noundef 50)
  %61 = getelementptr inbounds [1 x [20 x %"class.cv::Point_"]], ptr %4, i64 0, i64 0
  %62 = getelementptr inbounds [20 x %"class.cv::Point_"], ptr %61, i64 0, i64 11
  call void @llvm.memcpy.p0.p0.i64(ptr align 8 %62, ptr align 4 %16, i64 8, i1 false)
  call void @_ZN2cv6Point_IiEC2Eii(ptr noundef nonnull align 4 dereferenceable(8) %17, i32 noundef 180, i32 noundef 100)
  %63 = getelementptr inbounds [1 x [20 x %"class.cv::Point_"]], ptr %4, i64 0, i64 0
  %64 = getelementptr inbounds [20 x %"class.cv::Point_"], ptr %63, i64 0, i64 12
  call void @llvm.memcpy.p0.p0.i64(ptr align 16 %64, ptr align 4 %17, i64 8, i1 false)
  call void @_ZN2cv6Point_IiEC2Eii(ptr noundef nonnull align 4 dereferenceable(8) %18, i32 noundef 140, i32 noundef 100)
  %65 = getelementptr inbounds [1 x [20 x %"class.cv::Point_"]], ptr %4, i64 0, i64 0
  %66 = getelementptr inbounds [20 x %"class.cv::Point_"], ptr %65, i64 0, i64 13
  call void @llvm.memcpy.p0.p0.i64(ptr align 8 %66, ptr align 4 %18, i64 8, i1 false)
  call void @_ZN2cv6Point_IiEC2Eii(ptr noundef nonnull align 4 dereferenceable(8) %19, i32 noundef 140, i32 noundef 50)
  %67 = getelementptr inbounds [1 x [20 x %"class.cv::Point_"]], ptr %4, i64 0, i64 0
  %68 = getelementptr inbounds [20 x %"class.cv::Point_"], ptr %67, i64 0, i64 14
  call void @llvm.memcpy.p0.p0.i64(ptr align 16 %68, ptr align 4 %19, i64 8, i1 false)
  call void @_ZN2cv6Point_IiEC2Eii(ptr noundef nonnull align 4 dereferenceable(8) %20, i32 noundef 100, i32 noundef 50)
  %69 = getelementptr inbounds [1 x [20 x %"class.cv::Point_"]], ptr %4, i64 0, i64 0
  %70 = getelementptr inbounds [20 x %"class.cv::Point_"], ptr %69, i64 0, i64 15
  call void @llvm.memcpy.p0.p0.i64(ptr align 8 %70, ptr align 4 %20, i64 8, i1 false)
  call void @_ZN2cv6Point_IiEC2Eii(ptr noundef nonnull align 4 dereferenceable(8) %21, i32 noundef 100, i32 noundef 150)
  %71 = getelementptr inbounds [1 x [20 x %"class.cv::Point_"]], ptr %4, i64 0, i64 0
  %72 = getelementptr inbounds [20 x %"class.cv::Point_"], ptr %71, i64 0, i64 16
  call void @llvm.memcpy.p0.p0.i64(ptr align 16 %72, ptr align 4 %21, i64 8, i1 false)
  call void @_ZN2cv6Point_IiEC2Eii(ptr noundef nonnull align 4 dereferenceable(8) %22, i32 noundef 162, i32 noundef 150)
  %73 = getelementptr inbounds [1 x [20 x %"class.cv::Point_"]], ptr %4, i64 0, i64 0
  %74 = getelementptr inbounds [20 x %"class.cv::Point_"], ptr %73, i64 0, i64 17
  call void @llvm.memcpy.p0.p0.i64(ptr align 8 %74, ptr align 4 %22, i64 8, i1 false)
  call void @_ZN2cv6Point_IiEC2Eii(ptr noundef nonnull align 4 dereferenceable(8) %23, i32 noundef 125, i32 noundef 325)
  %75 = getelementptr inbounds [1 x [20 x %"class.cv::Point_"]], ptr %4, i64 0, i64 0
  %76 = getelementptr inbounds [20 x %"class.cv::Point_"], ptr %75, i64 0, i64 18
  call void @llvm.memcpy.p0.p0.i64(ptr align 16 %76, ptr align 4 %23, i64 8, i1 false)
  call void @_ZN2cv6Point_IiEC2Eii(ptr noundef nonnull align 4 dereferenceable(8) %24, i32 noundef 100, i32 noundef 325)
  %77 = getelementptr inbounds [1 x [20 x %"class.cv::Point_"]], ptr %4, i64 0, i64 0
  %78 = getelementptr inbounds [20 x %"class.cv::Point_"], ptr %77, i64 0, i64 19
  call void @llvm.memcpy.p0.p0.i64(ptr align 8 %78, ptr align 4 %24, i64 8, i1 false)
  %79 = getelementptr inbounds [1 x [20 x %"class.cv::Point_"]], ptr %4, i64 0, i64 0
  %80 = getelementptr inbounds [20 x %"class.cv::Point_"], ptr %79, i64 0, i64 0
  store ptr %80, ptr %25, align 8
  call void @llvm.memcpy.p0.p0.i64(ptr align 4 %26, ptr align 4 @__const._Z9MyPolygonN2cv3MatE.npt, i64 4, i1 false)
  call void @_ZN2cv17_InputOutputArrayC2ERNS_3MatE(ptr noundef nonnull align 8 dereferenceable(24) %27, ptr noundef nonnull align 8 dereferenceable(96) %0)
  %81 = getelementptr inbounds [1 x ptr], ptr %25, i64 0, i64 0
  %82 = getelementptr inbounds [1 x i32], ptr %26, i64 0, i64 0
  invoke void @_ZN2cv7Scalar_IdEC2Edddd(ptr noundef nonnull align 8 dereferenceable(32) %28, double noundef 2.550000e+02, double noundef 2.550000e+02, double noundef 2.550000e+02, double noundef 0.000000e+00)
          to label %83 unwind label %88

83:                                               ; preds = %38
  %84 = load i32, ptr %3, align 4
  invoke void @_ZN2cv6Point_IiEC2Ev(ptr noundef nonnull align 4 dereferenceable(8) %31)
          to label %85 unwind label %88

85:                                               ; preds = %83
  %86 = load i64, ptr %31, align 4
  invoke void @_ZN2cv8fillPolyERKNS_17_InputOutputArrayEPPKNS_6Point_IiEEPKiiRKNS_7Scalar_IdEEiiS4_(ptr noundef nonnull align 8 dereferenceable(24) %27, ptr noundef %81, ptr noundef %82, i32 noundef 1, ptr noundef nonnull align 8 dereferenceable(32) %28, i32 noundef %84, i32 noundef 0, i64 %86)
          to label %87 unwind label %88

87:                                               ; preds = %85
  call void @_ZN2cv17_InputOutputArrayD2Ev(ptr noundef nonnull align 8 dereferenceable(24) %27) #6
  ret void

88:                                               ; preds = %85, %83, %38
  %89 = landingpad { ptr, i32 }
          cleanup
  %90 = extractvalue { ptr, i32 } %89, 0
  store ptr %90, ptr %29, align 8
  %91 = extractvalue { ptr, i32 } %89, 1
  store i32 %91, ptr %30, align 4
  call void @_ZN2cv17_InputOutputArrayD2Ev(ptr noundef nonnull align 8 dereferenceable(24) %27) #6
  br label %92

92:                                               ; preds = %88
  %93 = load ptr, ptr %29, align 8
  %94 = load i32, ptr %30, align 4
  %95 = insertvalue { ptr, i32 } poison, ptr %93, 0
  %96 = insertvalue { ptr, i32 } %95, i32 %94, 1
  resume { ptr, i32 } %96
}