; Function Attrs: mustprogress uwtable
define hidden void @_Z9MyPolygonN2cv3MatE(ptr noundef %0) local_unnamed_addr #4 personality ptr @__gxx_personality_v0 {
  %2 = alloca [1 x [20 x %"class.cv::Point_"]], align 16
  %3 = alloca [1 x ptr], align 8
  %4 = alloca [1 x i32], align 4
  %5 = alloca %"class.cv::_InputOutputArray", align 8
  %6 = alloca %"class.cv::Scalar_", align 16
  store i64 1503238553700, ptr %2, align 16
  %7 = getelementptr inbounds i8, ptr %2, i64 8
  store i64 1503238553900, ptr %7, align 8
  %8 = getelementptr inbounds i8, ptr %2, i64 16
  store i64 1395864371500, ptr %8, align 16
  %9 = getelementptr inbounds i8, ptr %2, i64 24
  store i64 1395864371475, ptr %9, align 8
  %10 = getelementptr inbounds i8, ptr %2, i64 32
  store i64 644245094637, ptr %10, align 16
  %11 = getelementptr inbounds i8, ptr %2, i64 40
  store i64 644245094700, ptr %11, align 8
  %12 = getelementptr inbounds i8, ptr %2, i64 48
  store i64 214748365100, ptr %12, align 16
  %13 = getelementptr inbounds i8, ptr %2, i64 56
  store i64 214748365060, ptr %13, align 8
  %14 = getelementptr inbounds i8, ptr %2, i64 64
  store i64 429496729860, ptr %14, align 16
  %15 = getelementptr inbounds i8, ptr %2, i64 72
  store i64 429496729820, ptr %15, align 8
  %16 = getelementptr inbounds i8, ptr %2, i64 80
  store i64 214748365020, ptr %16, align 16
  %17 = getelementptr inbounds i8, ptr %2, i64 88
  store i64 214748364980, ptr %17, align 8
  %18 = getelementptr inbounds i8, ptr %2, i64 96
  store i64 429496729780, ptr %18, align 16
  %19 = getelementptr inbounds i8, ptr %2, i64 104
  store i64 429496729740, ptr %19, align 8
  %20 = getelementptr inbounds i8, ptr %2, i64 112
  store i64 214748364940, ptr %20, align 16
  %21 = getelementptr inbounds i8, ptr %2, i64 120
  store i64 214748364900, ptr %21, align 8
  %22 = getelementptr inbounds i8, ptr %2, i64 128
  store i64 644245094500, ptr %22, align 16
  %23 = getelementptr inbounds i8, ptr %2, i64 136
  store i64 644245094562, ptr %23, align 8
  %24 = getelementptr inbounds i8, ptr %2, i64 144
  store i64 1395864371325, ptr %24, align 16
  %25 = getelementptr inbounds i8, ptr %2, i64 152
  store i64 1395864371300, ptr %25, align 8
  store ptr %2, ptr %3, align 8
  store i32 20, ptr %4, align 4
  %26 = getelementptr inbounds i8, ptr %5, i64 8
  %27 = getelementptr inbounds i8, ptr %5, i64 16
  store i64 0, ptr %27, align 8
  store i32 50397184, ptr %5, align 8
  store ptr %0, ptr %26, align 8
  store <2 x double> <double 2.550000e+02, double 2.550000e+02>, ptr %6, align 16
  %28 = getelementptr inbounds i8, ptr %6, i64 16
  store <2 x double> <double 2.550000e+02, double 0.000000e+00>, ptr %28, align 16
  call void @_ZN2cv8fillPolyERKNS_17_InputOutputArrayEPPKNS_6Point_IiEEPKiiRKNS_7Scalar_IdEEiiS4_(ptr noundef nonnull align 8 dereferenceable(24) %5, ptr noundef nonnull %3, ptr noundef nonnull %4, i32 noundef 1, ptr noundef nonnull align 8 dereferenceable(32) %6, i32 noundef 8, i32 noundef 0, i64 0)
  ret void
}